target datalayout = "e-m:e-p270:32:32-p271:32:32-p272:64:64-i64:64-i128:128-f80:128-n8:16:32:64-S128"
target triple = "x86_64-pc-linux-gnu"

%"struct.duckdb::roaring::RunContainerRLEPair" = type { i16, i16 }
%"struct.duckdb::roaring::ContainerScanState" = type { ptr, i64, i64, i64 }
%"struct.duckdb::roaring::RunContainerScanState" = type { %"struct.duckdb::roaring::ContainerScanState", %"struct.duckdb::roaring::RunContainerRLEPair", i8, i64, i64, ptr }

; Function Attrs: mustprogress nounwind uwtable
define void @_ZN6duckdb7roaring21RunContainerScanState11LoadNextRunEv(ptr noundef nonnull align 8 dereferenceable(64) %0) unnamed_addr #2 align 2 {
  %2 = alloca ptr, align 8
  store ptr %0, ptr %2, align 8, !tbaa !448
  %3 = load ptr, ptr %2, align 8
  %4 = getelementptr inbounds nuw %"struct.duckdb::roaring::RunContainerScanState", ptr %3, i32 0, i32 3
  %5 = load i64, ptr %4, align 8, !tbaa !452
  %6 = getelementptr inbounds nuw %"struct.duckdb::roaring::RunContainerScanState", ptr %3, i32 0, i32 4
  %7 = load i64, ptr %6, align 8, !tbaa !453
  %8 = icmp uge i64 %5, %7
  br i1 %8, label %9, label %11

9:                                                ; preds = %1
  %10 = getelementptr inbounds nuw %"struct.duckdb::roaring::RunContainerScanState", ptr %3, i32 0, i32 2
  store i8 1, ptr %10, align 4, !tbaa !450
  br label %21

11:                                               ; preds = %1
  %12 = getelementptr inbounds nuw %"struct.duckdb::roaring::RunContainerScanState", ptr %3, i32 0, i32 5
  %13 = load ptr, ptr %12, align 8, !tbaa !454
  %14 = getelementptr inbounds nuw %"struct.duckdb::roaring::RunContainerScanState", ptr %3, i32 0, i32 3
  %15 = load i64, ptr %14, align 8, !tbaa !452
  %16 = getelementptr inbounds nuw %"struct.duckdb::roaring::RunContainerRLEPair", ptr %13, i64 %15
  %17 = getelementptr inbounds nuw %"struct.duckdb::roaring::RunContainerScanState", ptr %3, i32 0, i32 1
  call void @llvm.memcpy.p0.p0.i64(ptr align 8 %17, ptr align 2 %16, i64 4, i1 false), !tbaa.struct !460
  %18 = getelementptr inbounds nuw %"struct.duckdb::roaring::RunContainerScanState", ptr %3, i32 0, i32 3
  %19 = load i64, ptr %18, align 8, !tbaa !452
  %20 = add i64 %19, 1
  store i64 %20, ptr %18, align 8, !tbaa !452
  br label %21

21:                                               ; preds = %11, %9
  ret void
}