; Function Attrs: mustprogress nofree norecurse nosync nounwind willreturn memory(read, argmem: readwrite, inaccessiblemem: none) uwtable
define void @_ZN6duckdb7roaring21RunContainerScanState11LoadNextRunEv(ptr noundef nonnull align 8 captures(none) dereferenceable(64) %0) unnamed_addr #11 align 2 {
  %2 = getelementptr inbounds nuw i8, ptr %0, i64 40
  %3 = load i64, ptr %2, align 8, !tbaa !424
  %4 = getelementptr inbounds nuw i8, ptr %0, i64 48
  %5 = load i64, ptr %4, align 8, !tbaa !425
  %.not = icmp ult i64 %3, %5
  br i1 %.not, label %8, label %6

6:                                                ; preds = %1
  %7 = getelementptr inbounds nuw i8, ptr %0, i64 36
  store i8 1, ptr %7, align 4, !tbaa !422
  br label %15

8:                                                ; preds = %1
  %9 = getelementptr inbounds nuw i8, ptr %0, i64 56
  %10 = load ptr, ptr %9, align 8, !tbaa !426
  %11 = getelementptr inbounds nuw %"struct.duckdb::roaring::RunContainerRLEPair", ptr %10, i64 %3
  %12 = getelementptr inbounds nuw i8, ptr %0, i64 32
  %13 = load i32, ptr %11, align 2
  store i32 %13, ptr %12, align 8
  %14 = add nuw i64 %3, 1
  store i64 %14, ptr %2, align 8, !tbaa !424
  br label %15

15:                                               ; preds = %8, %6
  ret void
}